target datalayout = "e-m:e-p270:32:32-p271:32:32-p272:64:64-i64:64-i128:128-f80:128-n8:16:32:64-S128"
target triple = "x86_64-pc-linux-gnu"

%struct.bio_st = type { ptr, ptr, ptr, ptr, ptr, i32, i32, i32, i32, i32, ptr, ptr, ptr, %struct.CRYPTO_REF_COUNT, i64, i64, %struct.crypto_ex_data_st }
%struct.CRYPTO_REF_COUNT = type { i32 }
%struct.crypto_ex_data_st = type { ptr, ptr }
%struct.bio_buf_mem_st = type { ptr, ptr }
%struct.buf_mem_st = type { i64, ptr, i64, i64 }

@.str = private unnamed_addr constant [32 x i8] c"../openssl/crypto/bio/bss_mem.c\00", align 1
@__func__.BIO_new_mem_buf = private unnamed_addr constant [16 x i8] c"BIO_new_mem_buf\00", align 1

; Function Attrs: nounwind uwtable
define ptr @BIO_s_mem() #0 {
  ret ptr @mem_method
}

; Function Attrs: nounwind uwtable
define ptr @BIO_new_mem_buf(ptr noundef %0, i32 noundef %1) #0 {
  %3 = alloca ptr, align 8
  %4 = alloca ptr, align 8
  %5 = alloca i32, align 4
  %6 = alloca ptr, align 8
  %7 = alloca ptr, align 8
  %8 = alloca ptr, align 8
  %9 = alloca i64, align 8
  %10 = alloca i32, align 4
  store ptr %0, ptr %4, align 8, !tbaa !3
  store i32 %1, ptr %5, align 4, !tbaa !7
  call void @llvm.lifetime.start.p0(i64 8, ptr %6) #6
  call void @llvm.lifetime.start.p0(i64 8, ptr %7) #6
  call void @llvm.lifetime.start.p0(i64 8, ptr %8) #6
  call void @llvm.lifetime.start.p0(i64 8, ptr %9) #6
  %11 = load ptr, ptr %4, align 8, !tbaa !3
  %12 = icmp eq ptr %11, null
  br i1 %12, label %13, label %14

13:                                               ; preds = %2
  call void @ERR_new()
  call void @ERR_set_debug(ptr noundef @.str, i32 noundef 90, ptr noundef @__func__.BIO_new_mem_buf)
  call void (i32, i32, ptr, ...) @ERR_set_error(i32 noundef 32, i32 noundef 786690, ptr noundef null)
  store ptr null, ptr %3, align 8
  store i32 1, ptr %10, align 4
  br label %58

14:                                               ; preds = %2
  %15 = load i32, ptr %5, align 4, !tbaa !7
  %16 = icmp slt i32 %15, 0
  br i1 %16, label %17, label %20

17:                                               ; preds = %14
  %18 = load ptr, ptr %4, align 8, !tbaa !3
  %19 = call i64 @strlen(ptr noundef %18) #7
  br label %23

20:                                               ; preds = %14
  %21 = load i32, ptr %5, align 4, !tbaa !7
  %22 = sext i32 %21 to i64
  br label %23

23:                                               ; preds = %20, %17
  %24 = phi i64 [ %19, %17 ], [ %22, %20 ]
  store i64 %24, ptr %9, align 8, !tbaa !9
  %25 = call ptr @BIO_s_mem()
  %26 = call ptr @BIO_new(ptr noundef %25)
  store ptr %26, ptr %6, align 8, !tbaa !11
  %27 = icmp eq ptr %26, null
  br i1 %27, label %28, label %29

28:                                               ; preds = %23
  store ptr null, ptr %3, align 8
  store i32 1, ptr %10, align 4
  br label %58

29:                                               ; preds = %23
  %30 = load ptr, ptr %6, align 8, !tbaa !11
  %31 = getelementptr inbounds nuw %struct.bio_st, ptr %30, i32 0, i32 10
  %32 = load ptr, ptr %31, align 8, !tbaa !13
  store ptr %32, ptr %8, align 8, !tbaa !21
  %33 = load ptr, ptr %8, align 8, !tbaa !21
  %34 = getelementptr inbounds nuw %struct.bio_buf_mem_st, ptr %33, i32 0, i32 0
  %35 = load ptr, ptr %34, align 8, !tbaa !23
  store ptr %35, ptr %7, align 8, !tbaa !26
  %36 = load ptr, ptr %4, align 8, !tbaa !3
  %37 = load ptr, ptr %7, align 8, !tbaa !26
  %38 = getelementptr inbounds nuw %struct.buf_mem_st, ptr %37, i32 0, i32 1
  store ptr %36, ptr %38, align 8, !tbaa !27
  %39 = load i64, ptr %9, align 8, !tbaa !9
  %40 = load ptr, ptr %7, align 8, !tbaa !26
  %41 = getelementptr inbounds nuw %struct.buf_mem_st, ptr %40, i32 0, i32 0
  store i64 %39, ptr %41, align 8, !tbaa !29
  %42 = load i64, ptr %9, align 8, !tbaa !9
  %43 = load ptr, ptr %7, align 8, !tbaa !26
  %44 = getelementptr inbounds nuw %struct.buf_mem_st, ptr %43, i32 0, i32 2
  store i64 %42, ptr %44, align 8, !tbaa !30
  %45 = load ptr, ptr %8, align 8, !tbaa !21
  %46 = getelementptr inbounds nuw %struct.bio_buf_mem_st, ptr %45, i32 0, i32 1
  %47 = load ptr, ptr %46, align 8, !tbaa !31
  %48 = load ptr, ptr %8, align 8, !tbaa !21
  %49 = getelementptr inbounds nuw %struct.bio_buf_mem_st, ptr %48, i32 0, i32 0
  %50 = load ptr, ptr %49, align 8, !tbaa !23
  call void @llvm.memcpy.p0.p0.i64(ptr align 8 %47, ptr align 8 %50, i64 32, i1 false), !tbaa.struct !32
  %51 = load ptr, ptr %6, align 8, !tbaa !11
  %52 = getelementptr inbounds nuw %struct.bio_st, ptr %51, i32 0, i32 7
  %53 = load i32, ptr %52, align 8, !tbaa !34
  %54 = or i32 %53, 512
  store i32 %54, ptr %52, align 8, !tbaa !34
  %55 = load ptr, ptr %6, align 8, !tbaa !11
  %56 = getelementptr inbounds nuw %struct.bio_st, ptr %55, i32 0, i32 9
  store i32 0, ptr %56, align 8, !tbaa !35
  %57 = load ptr, ptr %6, align 8, !tbaa !11
  store ptr %57, ptr %3, align 8
  store i32 1, ptr %10, align 4
  br label %58

58:                                               ; preds = %29, %28, %13
  call void @llvm.lifetime.end.p0(i64 8, ptr %9) #6
  call void @llvm.lifetime.end.p0(i64 8, ptr %8) #6
  call void @llvm.lifetime.end.p0(i64 8, ptr %7) #6
  call void @llvm.lifetime.end.p0(i64 8, ptr %6) #6
  %59 = load ptr, ptr %3, align 8
  ret ptr %59
}