; Function Attrs: nounwind uwtable
define ptr @BIO_new_mem_buf(ptr noundef %0, i32 noundef %1) local_unnamed_addr #1 {
  %3 = icmp eq ptr %0, null
  br i1 %3, label %4, label %5

4:                                                ; preds = %2
  tail call void @ERR_new() #7
  tail call void @ERR_set_debug(ptr noundef nonnull @.str, i32 noundef 90, ptr noundef nonnull @__func__.BIO_new_mem_buf) #7
  tail call void (i32, i32, ptr, ...) @ERR_set_error(i32 noundef 32, i32 noundef 786690, ptr noundef null) #7
  br label %27

5:                                                ; preds = %2
  %6 = icmp slt i32 %1, 0
  br i1 %6, label %7, label %9

7:                                                ; preds = %5
  %8 = tail call i64 @strlen(ptr noundef nonnull dereferenceable(1) %0) #8
  br label %11

9:                                                ; preds = %5
  %10 = zext nneg i32 %1 to i64
  br label %11

11:                                               ; preds = %9, %7
  %12 = phi i64 [ %8, %7 ], [ %10, %9 ]
  %13 = tail call ptr @BIO_new(ptr noundef nonnull @mem_method) #7
  %14 = icmp eq ptr %13, null
  br i1 %14, label %27, label %15

15:                                               ; preds = %11
  %16 = getelementptr inbounds nuw i8, ptr %13, i64 64
  %17 = load ptr, ptr %16, align 8, !tbaa !3
  %18 = load ptr, ptr %17, align 8, !tbaa !17
  %19 = getelementptr inbounds nuw i8, ptr %18, i64 8
  store ptr %0, ptr %19, align 8, !tbaa !20
  store i64 %12, ptr %18, align 8, !tbaa !22
  %20 = getelementptr inbounds nuw i8, ptr %18, i64 16
  store i64 %12, ptr %20, align 8, !tbaa !23
  %21 = getelementptr inbounds nuw i8, ptr %17, i64 8
  %22 = load ptr, ptr %21, align 8, !tbaa !24
  tail call void @llvm.memcpy.p0.p0.i64(ptr noundef nonnull align 8 dereferenceable(32) %22, ptr noundef nonnull align 8 dereferenceable(32) %18, i64 32, i1 false), !tbaa.struct !25
  %23 = getelementptr inbounds nuw i8, ptr %13, i64 48
  %24 = load i32, ptr %23, align 8, !tbaa !28
  %25 = or i32 %24, 512
  store i32 %25, ptr %23, align 8, !tbaa !28
  %26 = getelementptr inbounds nuw i8, ptr %13, i64 56
  store i32 0, ptr %26, align 8, !tbaa !29
  br label %27

27:                                               ; preds = %11, %15, %4
  %.0 = phi ptr [ null, %4 ], [ %13, %15 ], [ null, %11 ]
  ret ptr %.0
}